; Function Attrs: nounwind uwtable
define internal fastcc ptr @zlib_Decompress_copy_impl(ptr noundef %0, ptr noundef %1) unnamed_addr #0 {
  %3 = tail call ptr @PyType_GetModuleState(ptr noundef %1) #7
  %4 = getelementptr inbounds nuw i8, ptr %3, i64 8
  %5 = load ptr, ptr %4, align 8, !tbaa !10
  %6 = tail call fastcc ptr @newcompobject(ptr noundef %5)
  %.not = icmp eq ptr %6, null
  br i1 %.not, label %Py_XDECREF.exit47, label %7

7:                                                ; preds = %2
  %8 = getelementptr inbounds nuw i8, ptr %0, i64 160
  %9 = load ptr, ptr %8, align 8, !tbaa !66
  %10 = tail call i32 @PyThread_acquire_lock(ptr noundef %9, i32 noundef 0) #7
  %.not35 = icmp eq i32 %10, 0
  br i1 %.not35, label %11, label %15

11:                                               ; preds = %7
  %12 = tail call ptr @PyEval_SaveThread() #7
  %13 = load ptr, ptr %8, align 8, !tbaa !66
  %14 = tail call i32 @PyThread_acquire_lock(ptr noundef %13, i32 noundef 1) #7
  tail call void @PyEval_RestoreThread(ptr noundef %12) #7
  br label %15

15:                                               ; preds = %11, %7
  %16 = getelementptr inbounds nuw i8, ptr %6, i64 16
  %17 = getelementptr inbounds nuw i8, ptr %0, i64 16
  %18 = tail call i32 @inflateCopy(ptr noundef nonnull %16, ptr noundef nonnull %17) #7
  switch i32 %18, label %23 [
    i32 0, label %37
    i32 -2, label %19
    i32 -4, label %21
  ]

19:                                               ; preds = %15
  %20 = load ptr, ptr @PyExc_ValueError, align 8, !tbaa !15
  tail call void @PyErr_SetString(ptr noundef %20, ptr noundef nonnull @.str.83) #7
  br label %86

21:                                               ; preds = %15
  %22 = load ptr, ptr @PyExc_MemoryError, align 8, !tbaa !15
  tail call void @PyErr_SetString(ptr noundef %22, ptr noundef nonnull @.str.42) #7
  br label %86

23:                                               ; preds = %15
  %24 = getelementptr i8, ptr %0, i64 64
  %.val = load ptr, ptr %24, align 8
  %.not.i = icmp eq i32 %18, -6
  %.0.i = select i1 %.not.i, ptr @.str.16, ptr %.val
  %25 = icmp eq ptr %.0.i, null
  br i1 %25, label %26, label %33

26:                                               ; preds = %23
  switch i32 %18, label %29 [
    i32 -5, label %33
    i32 -2, label %27
    i32 -3, label %28
  ]

27:                                               ; preds = %26
  br label %33

28:                                               ; preds = %26
  br label %33

29:                                               ; preds = %26
  %30 = getelementptr inbounds nuw i8, ptr %3, i64 24
  %31 = load ptr, ptr %30, align 8, !tbaa !12
  %32 = tail call ptr (ptr, ptr, ...) @PyErr_Format(ptr noundef %31, ptr noundef nonnull @.str.20, i32 noundef %18, ptr noundef nonnull @.str.93) #7
  br label %86

33:                                               ; preds = %28, %27, %26, %23
  %.1.ph.i = phi ptr [ %.0.i, %23 ], [ @.str.18, %27 ], [ @.str.19, %28 ], [ @.str.17, %26 ]
  %34 = getelementptr inbounds nuw i8, ptr %3, i64 24
  %35 = load ptr, ptr %34, align 8, !tbaa !12
  %36 = tail call ptr (ptr, ptr, ...) @PyErr_Format(ptr noundef %35, ptr noundef nonnull @.str.21, i32 noundef %18, ptr noundef nonnull @.str.93, ptr noundef nonnull %.1.ph.i) #7
  br label %86

37:                                               ; preds = %15
  %38 = getelementptr inbounds nuw i8, ptr %6, i64 128
  %39 = load ptr, ptr %38, align 8, !tbaa !15
  %40 = getelementptr inbounds nuw i8, ptr %0, i64 128
  %41 = load ptr, ptr %40, align 8, !tbaa !64
  %42 = load i32, ptr %41, align 8, !tbaa !14
  %43 = icmp slt i32 %42, 0
  br i1 %43, label %_Py_NewRef.exit, label %44

44:                                               ; preds = %37
  %45 = add nuw i32 %42, 1
  store i32 %45, ptr %41, align 8, !tbaa !14
  br label %_Py_NewRef.exit

_Py_NewRef.exit:                                  ; preds = %37, %44
  store ptr %41, ptr %38, align 8, !tbaa !15
  %.not.i36 = icmp eq ptr %39, null
  br i1 %.not.i36, label %Py_XDECREF.exit, label %46

46:                                               ; preds = %_Py_NewRef.exit
  %47 = load i32, ptr %39, align 8, !tbaa !14
  %.not.i.i = icmp sgt i32 %47, -1
  br i1 %.not.i.i, label %48, label %Py_XDECREF.exit

48:                                               ; preds = %46
  %49 = add nsw i32 %47, -1
  store i32 %49, ptr %39, align 8, !tbaa !14
  %50 = icmp eq i32 %49, 0
  br i1 %50, label %51, label %Py_XDECREF.exit

51:                                               ; preds = %48
  tail call void @_Py_Dealloc(ptr noundef nonnull %39) #7
  br label %Py_XDECREF.exit

Py_XDECREF.exit:                                  ; preds = %_Py_NewRef.exit, %46, %48, %51
  %52 = getelementptr inbounds nuw i8, ptr %6, i64 136
  %53 = load ptr, ptr %52, align 8, !tbaa !15
  %54 = getelementptr inbounds nuw i8, ptr %0, i64 136
  %55 = load ptr, ptr %54, align 8, !tbaa !65
  %56 = load i32, ptr %55, align 8, !tbaa !14
  %57 = icmp slt i32 %56, 0
  br i1 %57, label %_Py_NewRef.exit37, label %58

58:                                               ; preds = %Py_XDECREF.exit
  %59 = add nuw i32 %56, 1
  store i32 %59, ptr %55, align 8, !tbaa !14
  br label %_Py_NewRef.exit37

_Py_NewRef.exit37:                                ; preds = %Py_XDECREF.exit, %58
  store ptr %55, ptr %52, align 8, !tbaa !15
  %.not.i38 = icmp eq ptr %53, null
  br i1 %.not.i38, label %Py_XDECREF.exit40, label %60

60:                                               ; preds = %_Py_NewRef.exit37
  %61 = load i32, ptr %53, align 8, !tbaa !14
  %.not.i.i39 = icmp sgt i32 %61, -1
  br i1 %.not.i.i39, label %62, label %Py_XDECREF.exit40

62:                                               ; preds = %60
  %63 = add nsw i32 %61, -1
  store i32 %63, ptr %53, align 8, !tbaa !14
  %64 = icmp eq i32 %63, 0
  br i1 %64, label %65, label %Py_XDECREF.exit40

65:                                               ; preds = %62
  tail call void @_Py_Dealloc(ptr noundef nonnull %53) #7
  br label %Py_XDECREF.exit40

Py_XDECREF.exit40:                                ; preds = %_Py_NewRef.exit37, %60, %62, %65
  %66 = getelementptr inbounds nuw i8, ptr %6, i64 152
  %67 = load ptr, ptr %66, align 8, !tbaa !15
  %68 = getelementptr inbounds nuw i8, ptr %0, i64 152
  %69 = load ptr, ptr %68, align 8, !tbaa !60
  %.not.i.i41 = icmp eq ptr %69, null
  br i1 %.not.i.i41, label %_Py_XNewRef.exit, label %70

70:                                               ; preds = %Py_XDECREF.exit40
  %71 = load i32, ptr %69, align 8, !tbaa !14
  %72 = icmp slt i32 %71, 0
  br i1 %72, label %_Py_XNewRef.exit, label %73

73:                                               ; preds = %70
  %74 = add nuw i32 %71, 1
  store i32 %74, ptr %69, align 8, !tbaa !14
  br label %_Py_XNewRef.exit

_Py_XNewRef.exit:                                 ; preds = %Py_XDECREF.exit40, %70, %73
  store ptr %69, ptr %66, align 8, !tbaa !15
  %.not.i42 = icmp eq ptr %67, null
  br i1 %.not.i42, label %Py_XDECREF.exit44, label %75

75:                                               ; preds = %_Py_XNewRef.exit
  %76 = load i32, ptr %67, align 8, !tbaa !14
  %.not.i.i43 = icmp sgt i32 %76, -1
  br i1 %.not.i.i43, label %77, label %Py_XDECREF.exit44

77:                                               ; preds = %75
  %78 = add nsw i32 %76, -1
  store i32 %78, ptr %67, align 8, !tbaa !14
  %79 = icmp eq i32 %78, 0
  br i1 %79, label %80, label %Py_XDECREF.exit44

80:                                               ; preds = %77
  tail call void @_Py_Dealloc(ptr noundef nonnull %67) #7
  br label %Py_XDECREF.exit44

Py_XDECREF.exit44:                                ; preds = %_Py_XNewRef.exit, %75, %77, %80
  %81 = getelementptr inbounds nuw i8, ptr %0, i64 144
  %82 = load i8, ptr %81, align 8, !tbaa !63
  %83 = getelementptr inbounds nuw i8, ptr %6, i64 144
  store i8 %82, ptr %83, align 8, !tbaa !63
  %84 = getelementptr inbounds nuw i8, ptr %6, i64 145
  store i8 1, ptr %84, align 1, !tbaa !55
  %85 = load ptr, ptr %8, align 8, !tbaa !66
  tail call void @PyThread_release_lock(ptr noundef %85) #7
  br label %Py_XDECREF.exit47

86:                                               ; preds = %19, %21, %29, %33
  %87 = load ptr, ptr %8, align 8, !tbaa !66
  tail call void @PyThread_release_lock(ptr noundef %87) #7
  %88 = load i32, ptr %6, align 8, !tbaa !14
  %.not.i.i46 = icmp sgt i32 %88, -1
  br i1 %.not.i.i46, label %89, label %Py_XDECREF.exit47

89:                                               ; preds = %86
  %90 = add nsw i32 %88, -1
  store i32 %90, ptr %6, align 8, !tbaa !14
  %91 = icmp eq i32 %90, 0
  br i1 %91, label %92, label %Py_XDECREF.exit47

92:                                               ; preds = %89
  tail call void @_Py_Dealloc(ptr noundef nonnull %6) #7
  br label %Py_XDECREF.exit47

Py_XDECREF.exit47:                                ; preds = %92, %89, %86, %Py_XDECREF.exit44, %2
  %.0 = phi ptr [ null, %2 ], [ %6, %Py_XDECREF.exit44 ], [ null, %86 ], [ null, %89 ], [ null, %92 ]
  ret ptr %.0
}